; Function Attrs: nounwind sspstrong uwtable
define dso_local void @qemu_clock_notify(i32 noundef %type) local_unnamed_addr #0 {
entry:
  %idxprom.i = zext i32 %type to i64
  %arrayidx.i = getelementptr [4 x %struct.QEMUClock], ptr @qemu_clocks, i64 0, i64 %idxprom.i
  %timer_list.03 = load ptr, ptr %arrayidx.i, align 16
  %tobool.not4 = icmp eq ptr %timer_list.03, null
  br i1 %tobool.not4, label %for.end, label %for.body

for.body:                                         ; preds = %entry, %timerlist_notify.exit
  %timer_list.05 = phi ptr [ %timer_list.0, %timerlist_notify.exit ], [ %timer_list.03, %entry ]
  %notify_cb.i = getelementptr inbounds nuw i8, ptr %timer_list.05, i64 80
  %0 = load ptr, ptr %notify_cb.i, align 8
  %tobool.not.i = icmp eq ptr %0, null
  br i1 %tobool.not.i, label %if.else.i, label %if.then.i

if.then.i:                                        ; preds = %for.body
  %notify_opaque.i = getelementptr inbounds nuw i8, ptr %timer_list.05, i64 88
  %1 = load ptr, ptr %notify_opaque.i, align 8
  %2 = load ptr, ptr %timer_list.05, align 8
  %type.i = getelementptr inbounds nuw i8, ptr %2, i64 8
  %3 = load i32, ptr %type.i, align 8
  tail call void %0(ptr noundef %1, i32 noundef %3) #17
  br label %timerlist_notify.exit

if.else.i:                                        ; preds = %for.body
  tail call void @qemu_notify_event() #17
  br label %timerlist_notify.exit

timerlist_notify.exit:                            ; preds = %if.then.i, %if.else.i
  %list = getelementptr inbounds nuw i8, ptr %timer_list.05, i64 64
  %timer_list.0 = load ptr, ptr %list, align 8
  %tobool.not = icmp eq ptr %timer_list.0, null
  br i1 %tobool.not, label %for.end, label %for.body, !llvm.loop !5

for.end:                                          ; preds = %timerlist_notify.exit, %entry
  ret void
}